; Function Attrs: mustprogress nofree norecurse nosync nounwind willreturn memory(argmem: read) uwtable
define noundef i32 @_ZN10open_spiel14dots_and_boxes4Move16GetCellAboveLeftEv(ptr nocapture noundef nonnull readonly align 4 dereferenceable(20) %0) local_unnamed_addr #7 align 2 {
  %2 = load i32, ptr %0, align 4
  %3 = icmp eq i32 %2, 0
  br i1 %3, label %16, label %4

4:                                                ; preds = %1
  %5 = getelementptr inbounds nuw i8, ptr %0, i64 4
  %6 = load i32, ptr %5, align 4
  %7 = icmp eq i32 %6, 0
  br i1 %7, label %16, label %8

8:                                                ; preds = %4
  %9 = add nsw i32 %2, -1
  %10 = getelementptr inbounds nuw i8, ptr %0, i64 16
  %11 = load i32, ptr %10, align 4
  %12 = add nsw i32 %11, 1
  %13 = mul nsw i32 %12, %9
  %14 = add nsw i32 %6, -1
  %15 = add nsw i32 %14, %13
  br label %16

16:                                               ; preds = %1, %4, %8
  %.0 = phi i32 [ %15, %8 ], [ -1, %4 ], [ -1, %1 ]
  ret i32 %.0
}